; Function Attrs: mustprogress uwtable
define void @_ZN3gmx15OptionsAssigner13finishSectionEv(ptr noundef nonnull readonly align 8 captures(none) dereferenceable(8) %0) local_unnamed_addr #0 align 2 {
  %2 = load ptr, ptr %0, align 8, !tbaa !32
  %3 = getelementptr inbounds nuw i8, ptr %2, i64 16
  %4 = getelementptr inbounds nuw i8, ptr %2, i64 24
  %5 = load ptr, ptr %4, align 8, !tbaa !24
  %6 = load ptr, ptr %3, align 8, !tbaa !23
  %7 = ptrtoint ptr %5 to i64
  %8 = ptrtoint ptr %6 to i64
  %9 = sub i64 %7, %8
  %10 = icmp ugt i64 %9, 8
  br i1 %10, label %12, label %11

11:                                               ; preds = %1
  tail call void @_ZN3gmx8internal13assertHandlerEPKcS2_S2_S2_i(ptr noundef nonnull @.str.10, ptr noundef nonnull @.str.11, ptr noundef nonnull @"__PRETTY_FUNCTION__._ZZN3gmx15OptionsAssigner13finishSectionEvENK3$_0clEv", ptr noundef nonnull @.str.1, i32 noundef 243) #20
  unreachable

12:                                               ; preds = %1
  %13 = getelementptr inbounds i8, ptr %5, i64 -8
  %14 = load ptr, ptr %13, align 8, !tbaa !21
  tail call void @_ZN3gmx8internal17OptionSectionImpl6finishEv(ptr noundef nonnull align 8 dereferenceable(201) %14)
  %15 = load ptr, ptr %0, align 8, !tbaa !32
  %16 = getelementptr inbounds nuw i8, ptr %15, i64 24
  %17 = load ptr, ptr %16, align 8, !tbaa !24
  %18 = getelementptr inbounds i8, ptr %17, i64 -8
  store ptr %18, ptr %16, align 8, !tbaa !24
  ret void
}